target datalayout = "e-m:e-p270:32:32-p271:32:32-p272:64:64-i64:64-i128:128-f80:128-n8:16:32:64-S128"
target triple = "x86_64-pc-linux-gnu"

%struct.prte_process_info_t = type { %struct.pmix_proc, %struct.pmix_proc, ptr, %struct.pmix_proc, i32, i32, i32, ptr, ptr, i32, i8, ptr, i16, ptr, ptr, i8, ptr, i8 }
%struct.pmix_proc = type { [256 x i8], i32 }
%struct.pmix_mca_base_framework_t = type { ptr, ptr, ptr, ptr, ptr, ptr, i32, i32, ptr, ptr, i32, i32, %struct.pmix_list_t, %struct.pmix_list_t }
%struct.pmix_list_t = type { %struct.pmix_object_t, %struct.pmix_list_item_t, i64 }
%struct.pmix_object_t = type { %union.pthread_mutex_t, ptr, i32, %struct.pmix_tma }
%union.pthread_mutex_t = type { %struct.__pthread_mutex_s }
%struct.__pthread_mutex_s = type { i32, i32, i32, i32, i32, i16, i16, %struct.__pthread_internal_list }
%struct.__pthread_internal_list = type { ptr, ptr }
%struct.pmix_tma = type { ptr, ptr, ptr, ptr, ptr, ptr, ptr, ptr }
%struct.pmix_list_item_t = type { %struct.pmix_object_t, ptr, ptr, i32 }
%struct.pmix_output_desc_t = type { i8, i8, i32, i8, i32, ptr, ptr, i32, ptr, i32, i8, i8, i8, i8, ptr, i32, i32 }
%struct.pmix_cli_result_t = type { %struct.pmix_object_t, %struct.pmix_list_t, ptr }
%struct.prte_job_t = type { %struct.pmix_list_item_t, i32, ptr, ptr, [256 x i8], ptr, i32, i32, ptr, ptr, i32, i32, i32, i32, ptr, ptr, ptr, i32, i32, i32, i32, i32, i32, i32, %struct.pmix_proc, i32, i16, %struct.pmix_list_t, %struct.pmix_data_buffer, %struct.pmix_list_t, [256 x i8], i32, ptr, %struct.pmix_cli_result_t }
%struct.pmix_data_buffer = type { ptr, ptr, ptr, i64, i64 }
%struct.prte_node_t = type { %struct.pmix_list_item_t, i32, ptr, ptr, ptr, ptr, ptr, ptr, i16, ptr, i16, i8, i32, i32, i32, i32, ptr, i8, %struct.pmix_list_t }

@prte_process_info = external global %struct.prte_process_info_t, align 8
@prte_rmaps_base_framework = external global %struct.pmix_mca_base_framework_t, align 8
@pmix_output_info = external global [0 x %struct.pmix_output_desc_t], align 8
@.str.31 = private unnamed_addr constant [32 x i8] c"%s Starting bookmark at node %s\00", align 1

; Function Attrs: inlinehint nounwind uwtable
define internal void @pmix_list_prepend(ptr noundef %0, ptr noundef %1) #4 {
  %3 = alloca ptr, align 8
  %4 = alloca ptr, align 8
  %5 = alloca ptr, align 8
  store ptr %0, ptr %3, align 8, !tbaa !7
  store ptr %1, ptr %4, align 8, !tbaa !77
  call void @llvm.lifetime.start.p0(i64 8, ptr %5) #13
  %6 = load ptr, ptr %3, align 8, !tbaa !7
  %7 = getelementptr inbounds nuw %struct.pmix_list_t, ptr %6, i32 0, i32 1
  store ptr %7, ptr %5, align 8, !tbaa !77
  %8 = load ptr, ptr %5, align 8, !tbaa !77
  %9 = getelementptr inbounds nuw %struct.pmix_list_item_t, ptr %8, i32 0, i32 1
  %10 = load ptr, ptr %9, align 8, !tbaa !46
  %11 = load ptr, ptr %4, align 8, !tbaa !77
  %12 = getelementptr inbounds nuw %struct.pmix_list_item_t, ptr %11, i32 0, i32 1
  store ptr %10, ptr %12, align 8, !tbaa !46
  %13 = load ptr, ptr %5, align 8, !tbaa !77
  %14 = load ptr, ptr %4, align 8, !tbaa !77
  %15 = getelementptr inbounds nuw %struct.pmix_list_item_t, ptr %14, i32 0, i32 2
  store ptr %13, ptr %15, align 8, !tbaa !75
  %16 = load ptr, ptr %4, align 8, !tbaa !77
  %17 = load ptr, ptr %5, align 8, !tbaa !77
  %18 = getelementptr inbounds nuw %struct.pmix_list_item_t, ptr %17, i32 0, i32 1
  %19 = load ptr, ptr %18, align 8, !tbaa !46
  %20 = getelementptr inbounds nuw %struct.pmix_list_item_t, ptr %19, i32 0, i32 2
  store volatile ptr %16, ptr %20, align 8, !tbaa !75
  %21 = load ptr, ptr %4, align 8, !tbaa !77
  %22 = load ptr, ptr %5, align 8, !tbaa !77
  %23 = getelementptr inbounds nuw %struct.pmix_list_item_t, ptr %22, i32 0, i32 1
  store ptr %21, ptr %23, align 8, !tbaa !46
  %24 = load ptr, ptr %3, align 8, !tbaa !7
  %25 = getelementptr inbounds nuw %struct.pmix_list_t, ptr %24, i32 0, i32 2
  %26 = load volatile i64, ptr %25, align 8, !tbaa !31
  %27 = add i64 %26, 1
  store volatile i64 %27, ptr %25, align 8, !tbaa !31
  call void @llvm.lifetime.end.p0(i64 8, ptr %5) #13
  ret void
}

; Function Attrs: inlinehint nounwind uwtable
define internal ptr @pmix_list_remove_item(ptr noundef %0, ptr noundef %1) #4 {
  %3 = alloca ptr, align 8
  %4 = alloca ptr, align 8
  store ptr %0, ptr %3, align 8, !tbaa !7
  store ptr %1, ptr %4, align 8, !tbaa !77
  %5 = load ptr, ptr %4, align 8, !tbaa !77
  %6 = getelementptr inbounds nuw %struct.pmix_list_item_t, ptr %5, i32 0, i32 1
  %7 = load ptr, ptr %6, align 8, !tbaa !46
  %8 = load ptr, ptr %4, align 8, !tbaa !77
  %9 = getelementptr inbounds nuw %struct.pmix_list_item_t, ptr %8, i32 0, i32 2
  %10 = load ptr, ptr %9, align 8, !tbaa !75
  %11 = getelementptr inbounds nuw %struct.pmix_list_item_t, ptr %10, i32 0, i32 1
  store volatile ptr %7, ptr %11, align 8, !tbaa !46
  %12 = load ptr, ptr %4, align 8, !tbaa !77
  %13 = getelementptr inbounds nuw %struct.pmix_list_item_t, ptr %12, i32 0, i32 2
  %14 = load ptr, ptr %13, align 8, !tbaa !75
  %15 = load ptr, ptr %4, align 8, !tbaa !77
  %16 = getelementptr inbounds nuw %struct.pmix_list_item_t, ptr %15, i32 0, i32 1
  %17 = load ptr, ptr %16, align 8, !tbaa !46
  %18 = getelementptr inbounds nuw %struct.pmix_list_item_t, ptr %17, i32 0, i32 2
  store volatile ptr %14, ptr %18, align 8, !tbaa !75
  %19 = load ptr, ptr %3, align 8, !tbaa !7
  %20 = getelementptr inbounds nuw %struct.pmix_list_t, ptr %19, i32 0, i32 2
  %21 = load volatile i64, ptr %20, align 8, !tbaa !31
  %22 = add i64 %21, -1
  store volatile i64 %22, ptr %20, align 8, !tbaa !31
  %23 = load ptr, ptr %4, align 8, !tbaa !77
  %24 = getelementptr inbounds nuw %struct.pmix_list_item_t, ptr %23, i32 0, i32 2
  %25 = load ptr, ptr %24, align 8, !tbaa !75
  ret ptr %25
}

; Function Attrs: nounwind uwtable
define void @prte_rmaps_base_get_starting_point(ptr noundef %0, ptr noundef %1) #0 {
  %3 = alloca ptr, align 8
  %4 = alloca ptr, align 8
  %5 = alloca ptr, align 8
  %6 = alloca ptr, align 8
  %7 = alloca i8, align 1
  %8 = alloca i32, align 4
  store ptr %0, ptr %3, align 8, !tbaa !7
  store ptr %1, ptr %4, align 8, !tbaa !3
  call void @llvm.lifetime.start.p0(i64 8, ptr %5) #13
  call void @llvm.lifetime.start.p0(i64 8, ptr %6) #13
  call void @llvm.lifetime.start.p0(i64 1, ptr %7) #13
  store i8 1, ptr %7, align 1, !tbaa !9
  store ptr null, ptr %5, align 8, !tbaa !3
  %9 = load ptr, ptr %4, align 8, !tbaa !3
  %10 = getelementptr inbounds nuw %struct.prte_job_t, ptr %9, i32 0, i32 16
  %11 = load ptr, ptr %10, align 8, !tbaa !111
  %12 = icmp ne ptr null, %11
  br i1 %12, label %13, label %41

13:                                               ; preds = %2
  %14 = load ptr, ptr %3, align 8, !tbaa !7
  %15 = getelementptr inbounds nuw %struct.pmix_list_t, ptr %14, i32 0, i32 1
  %16 = getelementptr inbounds nuw %struct.pmix_list_item_t, ptr %15, i32 0, i32 1
  %17 = load ptr, ptr %16, align 8, !tbaa !45
  store ptr %17, ptr %6, align 8, !tbaa !3
  br label %18

18:                                               ; preds = %36, %13
  %19 = load ptr, ptr %6, align 8, !tbaa !3
  %20 = load ptr, ptr %3, align 8, !tbaa !7
  %21 = getelementptr inbounds nuw %struct.pmix_list_t, ptr %20, i32 0, i32 1
  %22 = icmp ne ptr %19, %21
  br i1 %22, label %23, label %40

23:                                               ; preds = %18
  %24 = load ptr, ptr %6, align 8, !tbaa !3
  %25 = getelementptr inbounds nuw %struct.prte_node_t, ptr %24, i32 0, i32 1
  %26 = load i32, ptr %25, align 8, !tbaa !71
  %27 = load ptr, ptr %4, align 8, !tbaa !3
  %28 = getelementptr inbounds nuw %struct.prte_job_t, ptr %27, i32 0, i32 16
  %29 = load ptr, ptr %28, align 8, !tbaa !111
  %30 = getelementptr inbounds nuw %struct.prte_node_t, ptr %29, i32 0, i32 1
  %31 = load i32, ptr %30, align 8, !tbaa !71
  %32 = icmp eq i32 %26, %31
  br i1 %32, label %33, label %35

33:                                               ; preds = %23
  %34 = load ptr, ptr %6, align 8, !tbaa !3
  store ptr %34, ptr %5, align 8, !tbaa !3
  br label %40

35:                                               ; preds = %23
  store i8 0, ptr %7, align 1, !tbaa !9
  br label %36

36:                                               ; preds = %35
  %37 = load ptr, ptr %6, align 8, !tbaa !3
  %38 = getelementptr inbounds nuw %struct.pmix_list_item_t, ptr %37, i32 0, i32 1
  %39 = load ptr, ptr %38, align 8, !tbaa !46
  store ptr %39, ptr %6, align 8, !tbaa !3
  br label %18, !llvm.loop !112

40:                                               ; preds = %33, %18
  br label %41

41:                                               ; preds = %40, %2
  %42 = load ptr, ptr %5, align 8, !tbaa !3
  %43 = icmp eq ptr null, %42
  br i1 %43, label %47, label %44

44:                                               ; preds = %41
  %45 = load i8, ptr %7, align 1, !tbaa !9, !range !15, !noundef !16
  %46 = trunc i8 %45 to i1
  br i1 %46, label %47, label %48

47:                                               ; preds = %44, %41
  store i32 1, ptr %8, align 4
  br label %75

48:                                               ; preds = %44
  %49 = load i32, ptr getelementptr inbounds nuw (%struct.pmix_mca_base_framework_t, ptr @prte_rmaps_base_framework, i32 0, i32 11), align 4, !tbaa !40
  %50 = icmp sge i32 %49, 0
  br i1 %50, label %51, label %67

51:                                               ; preds = %48
  %52 = load i32, ptr getelementptr inbounds nuw (%struct.pmix_mca_base_framework_t, ptr @prte_rmaps_base_framework, i32 0, i32 11), align 4, !tbaa !40
  %53 = icmp slt i32 %52, 64
  br i1 %53, label %54, label %67

54:                                               ; preds = %51
  %55 = load i32, ptr getelementptr inbounds nuw (%struct.pmix_mca_base_framework_t, ptr @prte_rmaps_base_framework, i32 0, i32 11), align 4, !tbaa !40
  %56 = sext i32 %55 to i64
  %57 = getelementptr inbounds [0 x %struct.pmix_output_desc_t], ptr @pmix_output_info, i64 0, i64 %56
  %58 = getelementptr inbounds nuw %struct.pmix_output_desc_t, ptr %57, i32 0, i32 2
  %59 = load i32, ptr %58, align 4, !tbaa !43
  %60 = icmp sge i32 %59, 5
  br i1 %60, label %61, label %67

61:                                               ; preds = %54
  %62 = load i32, ptr getelementptr inbounds nuw (%struct.pmix_mca_base_framework_t, ptr @prte_rmaps_base_framework, i32 0, i32 11), align 4, !tbaa !40
  %63 = call ptr @prte_util_print_name_args(ptr noundef @prte_process_info)
  %64 = load ptr, ptr %5, align 8, !tbaa !3
  %65 = getelementptr inbounds nuw %struct.prte_node_t, ptr %64, i32 0, i32 2
  %66 = load ptr, ptr %65, align 8, !tbaa !63
  call void (i32, ptr, ...) @pmix_output(i32 noundef %62, ptr noundef @.str.31, ptr noundef %63, ptr noundef %66)
  br label %67

67:                                               ; preds = %61, %54, %51, %48
  %68 = load ptr, ptr %3, align 8, !tbaa !7
  %69 = load ptr, ptr %5, align 8, !tbaa !3
  %70 = getelementptr inbounds nuw %struct.prte_node_t, ptr %69, i32 0, i32 0
  %71 = call ptr @pmix_list_remove_item(ptr noundef %68, ptr noundef %70)
  %72 = load ptr, ptr %3, align 8, !tbaa !7
  %73 = load ptr, ptr %5, align 8, !tbaa !3
  %74 = getelementptr inbounds nuw %struct.prte_node_t, ptr %73, i32 0, i32 0
  call void @pmix_list_prepend(ptr noundef %72, ptr noundef %74)
  store i32 1, ptr %8, align 4
  br label %75

75:                                               ; preds = %67, %47
  call void @llvm.lifetime.end.p0(i64 1, ptr %7) #13
  call void @llvm.lifetime.end.p0(i64 8, ptr %6) #13
  call void @llvm.lifetime.end.p0(i64 8, ptr %5) #13
  ret void
}