; Function Attrs: nounwind uwtable
define void @prte_rmaps_base_get_starting_point(ptr noundef %0, ptr noundef readonly captures(none) %1) local_unnamed_addr #0 {
  %3 = getelementptr inbounds nuw i8, ptr %1, i64 488
  %4 = load ptr, ptr %3, align 8, !tbaa !90
  %.not = icmp eq ptr %4, null
  br i1 %.not, label %.thread, label %5

5:                                                ; preds = %2
  %6 = getelementptr inbounds nuw i8, ptr %0, i64 120
  %7 = getelementptr inbounds nuw i8, ptr %0, i64 240
  %.01523 = load ptr, ptr %7, align 8, !tbaa !45
  %.not1824 = icmp eq ptr %.01523, %6
  br i1 %.not1824, label %.thread, label %.lr.ph

.lr.ph:                                           ; preds = %5
  %8 = getelementptr inbounds nuw i8, ptr %4, i64 144
  %9 = load i32, ptr %8, align 8, !tbaa !71
  %10 = getelementptr inbounds nuw i8, ptr %.01523, i64 144
  %11 = load i32, ptr %10, align 8, !tbaa !71
  %12 = icmp eq i32 %11, %9
  br i1 %12, label %._crit_edge, label %.lr.ph34

13:                                               ; preds = %.lr.ph34
  %14 = getelementptr inbounds nuw i8, ptr %.015, i64 144
  %15 = load i32, ptr %14, align 8, !tbaa !71
  %16 = icmp eq i32 %15, %9
  br i1 %16, label %._crit_edge, label %.lr.ph34, !llvm.loop !91

.lr.ph34:                                         ; preds = %.lr.ph, %13
  %.0152633 = phi ptr [ %.015, %13 ], [ %.01523, %.lr.ph ]
  %17 = getelementptr inbounds nuw i8, ptr %.0152633, i64 120
  %.015 = load ptr, ptr %17, align 8, !tbaa !45
  %.not18 = icmp eq ptr %.015, %6
  br i1 %.not18, label %.thread, label %13, !llvm.loop !91

._crit_edge:                                      ; preds = %13, %.lr.ph
  %.01526.lcssa = phi ptr [ %.01523, %.lr.ph ], [ %.015, %13 ]
  br i1 %12, label %.thread, label %18

18:                                               ; preds = %._crit_edge
  %19 = load i32, ptr getelementptr inbounds nuw (i8, ptr @prte_rmaps_base_framework, i64 76), align 4, !tbaa !37
  %or.cond = icmp ult i32 %19, 64
  br i1 %or.cond, label %20, label %29

20:                                               ; preds = %18
  %21 = zext nneg i32 %19 to i64
  %22 = getelementptr inbounds nuw [0 x %struct.pmix_output_desc_t], ptr @pmix_output_info, i64 0, i64 %21, i32 2
  %23 = load i32, ptr %22, align 4, !tbaa !40
  %24 = icmp sgt i32 %23, 4
  br i1 %24, label %25, label %29

25:                                               ; preds = %20
  %26 = tail call ptr @prte_util_print_name_args(ptr noundef nonnull @prte_process_info) #11
  %27 = getelementptr inbounds nuw i8, ptr %.01526.lcssa, i64 152
  %28 = load ptr, ptr %27, align 8, !tbaa !64
  tail call void (i32, ptr, ...) @pmix_output(i32 noundef %19, ptr noundef nonnull @.str.31, ptr noundef %26, ptr noundef %28) #11
  br label %29

29:                                               ; preds = %25, %20, %18
  %30 = getelementptr inbounds nuw i8, ptr %.01526.lcssa, i64 120
  %31 = load ptr, ptr %30, align 8, !tbaa !45
  %32 = getelementptr inbounds nuw i8, ptr %.01526.lcssa, i64 128
  %33 = load ptr, ptr %32, align 8, !tbaa !66
  %34 = getelementptr inbounds nuw i8, ptr %33, i64 120
  store volatile ptr %31, ptr %34, align 8, !tbaa !45
  %35 = getelementptr inbounds nuw i8, ptr %31, i64 128
  store volatile ptr %33, ptr %35, align 8, !tbaa !66
  %36 = getelementptr inbounds nuw i8, ptr %0, i64 264
  %37 = load volatile i64, ptr %36, align 8, !tbaa !8
  %38 = add i64 %37, -1
  store volatile i64 %38, ptr %36, align 8, !tbaa !8
  %39 = load ptr, ptr %7, align 8, !tbaa !45
  store ptr %39, ptr %30, align 8, !tbaa !45
  store ptr %6, ptr %32, align 8, !tbaa !66
  %40 = getelementptr inbounds nuw i8, ptr %39, i64 128
  store volatile ptr %.01526.lcssa, ptr %40, align 8, !tbaa !66
  store ptr %.01526.lcssa, ptr %7, align 8, !tbaa !45
  %41 = load volatile i64, ptr %36, align 8, !tbaa !8
  %42 = add i64 %41, 1
  store volatile i64 %42, ptr %36, align 8, !tbaa !8
  br label %.thread

.thread:                                          ; preds = %.lr.ph34, %5, %2, %._crit_edge, %29
  ret void
}